target datalayout = "e-m:e-p270:32:32-p271:32:32-p272:64:64-i64:64-i128:128-f80:128-n8:16:32:64-S128"
target triple = "x86_64-pc-linux-gnu"

%struct.startup_info = type { i32, ptr, ptr }
%struct.repository_format = type { i32, i32, ptr, i32, i32, i32, i32, i32, i32, i32, ptr, %struct.string_list, %struct.string_list }
%struct.string_list = type { ptr, i64, i64, i8, ptr }
%struct.repository = type { ptr, ptr, ptr, ptr, ptr, %struct.strmap, %struct.strmap, %struct.repo_path_cache, ptr, ptr, ptr, ptr, %struct.repo_settings, ptr, ptr, ptr, ptr, ptr, ptr, i32, i32, i32, ptr, ptr, i32, i32, i8 }
%struct.strmap = type { %struct.hashmap, ptr, i8 }
%struct.hashmap = type { ptr, ptr, ptr, i32, i32, i32, i32, i8 }
%struct.repo_path_cache = type { ptr, ptr, ptr, ptr, ptr, ptr, ptr }
%struct.repo_settings = type { i32, i32, i32, i32, i32, i32, i32, i32, i32, i32, i32, i32, ptr, i32, i32, i32, i32, i32, i32, i32, i64, i64, i64 }

@startup_info = dso_local global ptr @the_startup_info, align 8
@the_repository = external global ptr, align 8

; Function Attrs: nounwind uwtable
define internal void @init_repository_format(ptr noundef %0) #0 {
  %2 = alloca ptr, align 8
  %3 = alloca %struct.repository_format, align 8
  store ptr %0, ptr %2, align 8, !tbaa !45
  call void @llvm.lifetime.start.p0(i64 136, ptr %3) #13
  call void @llvm.memset.p0.i64(ptr align 8 %3, i8 0, i64 136, i1 false)
  %4 = getelementptr inbounds { i32, i32, ptr, i32, i32, i32, i32, i32, i32, i32, [4 x i8], ptr, { ptr, i64, i64, i8, [7 x i8], ptr }, { ptr, i64, i64, i8, [7 x i8], ptr } }, ptr %3, i32 0, i32 0
  store i32 -1, ptr %4, align 8
  %5 = getelementptr inbounds { i32, i32, ptr, i32, i32, i32, i32, i32, i32, i32, [4 x i8], ptr, { ptr, i64, i64, i8, [7 x i8], ptr }, { ptr, i64, i64, i8, [7 x i8], ptr } }, ptr %3, i32 0, i32 5
  store i32 -1, ptr %5, align 8
  %6 = getelementptr inbounds { i32, i32, ptr, i32, i32, i32, i32, i32, i32, i32, [4 x i8], ptr, { ptr, i64, i64, i8, [7 x i8], ptr }, { ptr, i64, i64, i8, [7 x i8], ptr } }, ptr %3, i32 0, i32 6
  store i32 1, ptr %6, align 4
  %7 = getelementptr inbounds { i32, i32, ptr, i32, i32, i32, i32, i32, i32, i32, [4 x i8], ptr, { ptr, i64, i64, i8, [7 x i8], ptr }, { ptr, i64, i64, i8, [7 x i8], ptr } }, ptr %3, i32 0, i32 8
  store i32 1, ptr %7, align 4
  %8 = getelementptr inbounds { i32, i32, ptr, i32, i32, i32, i32, i32, i32, i32, [4 x i8], ptr, { ptr, i64, i64, i8, [7 x i8], ptr }, { ptr, i64, i64, i8, [7 x i8], ptr } }, ptr %3, i32 0, i32 12
  %9 = getelementptr inbounds { ptr, i64, i64, i8, [7 x i8], ptr }, ptr %8, i32 0, i32 3
  store i8 1, ptr %9, align 8
  %10 = getelementptr inbounds { i32, i32, ptr, i32, i32, i32, i32, i32, i32, i32, [4 x i8], ptr, { ptr, i64, i64, i8, [7 x i8], ptr }, { ptr, i64, i64, i8, [7 x i8], ptr } }, ptr %3, i32 0, i32 13
  %11 = getelementptr inbounds { ptr, i64, i64, i8, [7 x i8], ptr }, ptr %10, i32 0, i32 3
  store i8 1, ptr %11, align 8
  %12 = load ptr, ptr %2, align 8, !tbaa !45
  call void @llvm.memcpy.p0.p0.i64(ptr align 8 %12, ptr align 8 %3, i64 136, i1 false)
  call void @llvm.lifetime.end.p0(i64 136, ptr %3) #13
  ret void
}

; Function Attrs: nounwind uwtable
define dso_local void @clear_repository_format(ptr noundef %0) #0 {
  %2 = alloca ptr, align 8
  store ptr %0, ptr %2, align 8, !tbaa !45
  %3 = load ptr, ptr %2, align 8, !tbaa !45
  %4 = getelementptr inbounds nuw %struct.repository_format, ptr %3, i32 0, i32 11
  call void @string_list_clear(ptr noundef %4, i32 noundef 0)
  %5 = load ptr, ptr %2, align 8, !tbaa !45
  %6 = getelementptr inbounds nuw %struct.repository_format, ptr %5, i32 0, i32 12
  call void @string_list_clear(ptr noundef %6, i32 noundef 0)
  %7 = load ptr, ptr %2, align 8, !tbaa !45
  %8 = getelementptr inbounds nuw %struct.repository_format, ptr %7, i32 0, i32 10
  %9 = load ptr, ptr %8, align 8, !tbaa !51
  call void @free(ptr noundef %9) #13
  %10 = load ptr, ptr %2, align 8, !tbaa !45
  %11 = getelementptr inbounds nuw %struct.repository_format, ptr %10, i32 0, i32 2
  %12 = load ptr, ptr %11, align 8, !tbaa !52
  call void @free(ptr noundef %12) #13
  %13 = load ptr, ptr %2, align 8, !tbaa !45
  call void @init_repository_format(ptr noundef %13)
  ret void
}

; Function Attrs: inlinehint nounwind uwtable
define internal ptr @xstrdup_or_null(ptr noundef %0) #2 {
  %2 = alloca ptr, align 8
  store ptr %0, ptr %2, align 8, !tbaa !4
  %3 = load ptr, ptr %2, align 8, !tbaa !4
  %4 = icmp ne ptr %3, null
  br i1 %4, label %5, label %8

5:                                                ; preds = %1
  %6 = load ptr, ptr %2, align 8, !tbaa !4
  %7 = call ptr @xstrdup(ptr noundef %6)
  br label %9

8:                                                ; preds = %1
  br label %9

9:                                                ; preds = %8, %5
  %10 = phi ptr [ %7, %5 ], [ null, %8 ]
  ret ptr %10
}

; Function Attrs: nounwind uwtable
define dso_local void @check_repository_format(ptr noundef %0) #0 {
  %2 = alloca ptr, align 8
  %3 = alloca %struct.repository_format, align 8
  store ptr %0, ptr %2, align 8, !tbaa !45
  call void @llvm.lifetime.start.p0(i64 136, ptr %3) #13
  call void @llvm.memset.p0.i64(ptr align 8 %3, i8 0, i64 136, i1 false)
  %4 = getelementptr inbounds { i32, i32, ptr, i32, i32, i32, i32, i32, i32, i32, [4 x i8], ptr, { ptr, i64, i64, i8, [7 x i8], ptr }, { ptr, i64, i64, i8, [7 x i8], ptr } }, ptr %3, i32 0, i32 0
  store i32 -1, ptr %4, align 8
  %5 = getelementptr inbounds { i32, i32, ptr, i32, i32, i32, i32, i32, i32, i32, [4 x i8], ptr, { ptr, i64, i64, i8, [7 x i8], ptr }, { ptr, i64, i64, i8, [7 x i8], ptr } }, ptr %3, i32 0, i32 5
  store i32 -1, ptr %5, align 8
  %6 = getelementptr inbounds { i32, i32, ptr, i32, i32, i32, i32, i32, i32, i32, [4 x i8], ptr, { ptr, i64, i64, i8, [7 x i8], ptr }, { ptr, i64, i64, i8, [7 x i8], ptr } }, ptr %3, i32 0, i32 6
  store i32 1, ptr %6, align 4
  %7 = getelementptr inbounds { i32, i32, ptr, i32, i32, i32, i32, i32, i32, i32, [4 x i8], ptr, { ptr, i64, i64, i8, [7 x i8], ptr }, { ptr, i64, i64, i8, [7 x i8], ptr } }, ptr %3, i32 0, i32 8
  store i32 1, ptr %7, align 4
  %8 = getelementptr inbounds { i32, i32, ptr, i32, i32, i32, i32, i32, i32, i32, [4 x i8], ptr, { ptr, i64, i64, i8, [7 x i8], ptr }, { ptr, i64, i64, i8, [7 x i8], ptr } }, ptr %3, i32 0, i32 12
  %9 = getelementptr inbounds { ptr, i64, i64, i8, [7 x i8], ptr }, ptr %8, i32 0, i32 3
  store i8 1, ptr %9, align 8
  %10 = getelementptr inbounds { i32, i32, ptr, i32, i32, i32, i32, i32, i32, i32, [4 x i8], ptr, { ptr, i64, i64, i8, [7 x i8], ptr }, { ptr, i64, i64, i8, [7 x i8], ptr } }, ptr %3, i32 0, i32 13
  %11 = getelementptr inbounds { ptr, i64, i64, i8, [7 x i8], ptr }, ptr %10, i32 0, i32 3
  store i8 1, ptr %11, align 8
  %12 = load ptr, ptr %2, align 8, !tbaa !45
  %13 = icmp ne ptr %12, null
  br i1 %13, label %15, label %14

14:                                               ; preds = %1
  store ptr %3, ptr %2, align 8, !tbaa !45
  br label %15

15:                                               ; preds = %14, %1
  %16 = load ptr, ptr @the_repository, align 8, !tbaa !14
  %17 = call ptr @repo_get_git_dir(ptr noundef %16)
  %18 = load ptr, ptr %2, align 8, !tbaa !45
  %19 = call i32 @check_repository_format_gently(ptr noundef %17, ptr noundef %18, ptr noundef null)
  %20 = load ptr, ptr @startup_info, align 8, !tbaa !90
  %21 = getelementptr inbounds nuw %struct.startup_info, ptr %20, i32 0, i32 0
  store i32 1, ptr %21, align 8, !tbaa !92
  %22 = load ptr, ptr @the_repository, align 8, !tbaa !14
  %23 = load ptr, ptr %2, align 8, !tbaa !45
  %24 = getelementptr inbounds nuw %struct.repository_format, ptr %23, i32 0, i32 6
  %25 = load i32, ptr %24, align 4, !tbaa !95
  call void @repo_set_hash_algo(ptr noundef %22, i32 noundef %25)
  %26 = load ptr, ptr @the_repository, align 8, !tbaa !14
  %27 = load ptr, ptr %2, align 8, !tbaa !45
  %28 = getelementptr inbounds nuw %struct.repository_format, ptr %27, i32 0, i32 7
  %29 = load i32, ptr %28, align 8, !tbaa !96
  call void @repo_set_compat_hash_algo(ptr noundef %26, i32 noundef %29)
  %30 = load ptr, ptr @the_repository, align 8, !tbaa !14
  %31 = load ptr, ptr %2, align 8, !tbaa !45
  %32 = getelementptr inbounds nuw %struct.repository_format, ptr %31, i32 0, i32 8
  %33 = load i32, ptr %32, align 4, !tbaa !97
  call void @repo_set_ref_storage_format(ptr noundef %30, i32 noundef %33)
  %34 = load ptr, ptr %2, align 8, !tbaa !45
  %35 = getelementptr inbounds nuw %struct.repository_format, ptr %34, i32 0, i32 3
  %36 = load i32, ptr %35, align 8, !tbaa !98
  %37 = load ptr, ptr @the_repository, align 8, !tbaa !14
  %38 = getelementptr inbounds nuw %struct.repository, ptr %37, i32 0, i32 24
  store i32 %36, ptr %38, align 8, !tbaa !99
  %39 = load ptr, ptr %2, align 8, !tbaa !45
  %40 = getelementptr inbounds nuw %struct.repository_format, ptr %39, i32 0, i32 4
  %41 = load i32, ptr %40, align 4, !tbaa !100
  %42 = load ptr, ptr @the_repository, align 8, !tbaa !14
  %43 = getelementptr inbounds nuw %struct.repository, ptr %42, i32 0, i32 25
  store i32 %41, ptr %43, align 4, !tbaa !101
  %44 = load ptr, ptr %2, align 8, !tbaa !45
  %45 = getelementptr inbounds nuw %struct.repository_format, ptr %44, i32 0, i32 2
  %46 = load ptr, ptr %45, align 8, !tbaa !52
  %47 = call ptr @xstrdup_or_null(ptr noundef %46)
  %48 = load ptr, ptr @the_repository, align 8, !tbaa !14
  %49 = getelementptr inbounds nuw %struct.repository, ptr %48, i32 0, i32 22
  store ptr %47, ptr %49, align 8, !tbaa !102
  call void @clear_repository_format(ptr noundef %3)
  call void @llvm.lifetime.end.p0(i64 136, ptr %3) #13
  ret void
}