; Function Attrs: nounwind uwtable
define dso_local void @check_repository_format(ptr noundef %0) local_unnamed_addr #0 {
  %2 = alloca %struct.repository_format, align 8
  call void @llvm.lifetime.start.p0(i64 136, ptr nonnull %2) #25
  call void @llvm.memset.p0.i64(ptr noundef nonnull align 8 dereferenceable(136) %2, i8 0, i64 136, i1 false)
  store i32 -1, ptr %2, align 8
  %3 = getelementptr inbounds nuw i8, ptr %2, i64 24
  store i32 -1, ptr %3, align 8
  %4 = getelementptr inbounds nuw i8, ptr %2, i64 28
  store i32 1, ptr %4, align 4
  %5 = getelementptr inbounds nuw i8, ptr %2, i64 36
  store i32 1, ptr %5, align 4
  %6 = getelementptr inbounds nuw i8, ptr %2, i64 80
  store i8 1, ptr %6, align 8
  %7 = getelementptr inbounds nuw i8, ptr %2, i64 120
  store i8 1, ptr %7, align 8
  %.not = icmp eq ptr %0, null
  %spec.store.select = select i1 %.not, ptr %2, ptr %0
  %8 = load ptr, ptr @the_repository, align 8, !tbaa !9
  %9 = tail call ptr @repo_get_git_dir(ptr noundef %8) #25
  %10 = call fastcc i32 @check_repository_format_gently(ptr noundef %9, ptr noundef nonnull %spec.store.select, ptr noundef null)
  %11 = load ptr, ptr @startup_info, align 8, !tbaa !90
  store i32 1, ptr %11, align 8, !tbaa !92
  %12 = load ptr, ptr @the_repository, align 8, !tbaa !9
  %.sroa.gep8 = getelementptr inbounds nuw i8, ptr %0, i64 28
  %spec.store.select.sroa.sel = select i1 %.not, ptr %4, ptr %.sroa.gep8
  %13 = load i32, ptr %spec.store.select.sroa.sel, align 4, !tbaa !48
  call void @repo_set_hash_algo(ptr noundef %12, i32 noundef %13) #25
  %14 = load ptr, ptr @the_repository, align 8, !tbaa !9
  %spec.store.select.sroa.sel11.v.sroa.sel.v = select i1 %.not, ptr %2, ptr %0
  %spec.store.select.sroa.sel11.v.sroa.sel = getelementptr inbounds nuw i8, ptr %spec.store.select.sroa.sel11.v.sroa.sel.v, i64 32
  %15 = load i32, ptr %spec.store.select.sroa.sel11.v.sroa.sel, align 8, !tbaa !49
  call void @repo_set_compat_hash_algo(ptr noundef %14, i32 noundef %15) #25
  %16 = load ptr, ptr @the_repository, align 8, !tbaa !9
  %.sroa.gep13 = getelementptr inbounds nuw i8, ptr %0, i64 36
  %spec.store.select.sroa.sel14 = select i1 %.not, ptr %5, ptr %.sroa.gep13
  %17 = load i32, ptr %spec.store.select.sroa.sel14, align 4, !tbaa !54
  call void @repo_set_ref_storage_format(ptr noundef %16, i32 noundef %17) #25
  %spec.store.select.sroa.sel17.v.sroa.sel.v.sroa.sel.v = select i1 %.not, ptr %2, ptr %0
  %spec.store.select.sroa.sel17.v.sroa.sel.v.sroa.sel = getelementptr inbounds nuw i8, ptr %spec.store.select.sroa.sel17.v.sroa.sel.v.sroa.sel.v, i64 16
  %18 = load i32, ptr %spec.store.select.sroa.sel17.v.sroa.sel.v.sroa.sel, align 8, !tbaa !47
  %19 = load ptr, ptr @the_repository, align 8, !tbaa !9
  %20 = getelementptr inbounds nuw i8, ptr %19, i64 448
  store i32 %18, ptr %20, align 8, !tbaa !95
  %spec.store.select.sroa.sel20.v.sroa.sel.v.sroa.sel.v = select i1 %.not, ptr %2, ptr %0
  %spec.store.select.sroa.sel20.v.sroa.sel.v.sroa.sel = getelementptr inbounds nuw i8, ptr %spec.store.select.sroa.sel20.v.sroa.sel.v.sroa.sel.v, i64 20
  %21 = load i32, ptr %spec.store.select.sroa.sel20.v.sroa.sel.v.sroa.sel, align 4, !tbaa !55
  %22 = getelementptr inbounds nuw i8, ptr %19, i64 452
  store i32 %21, ptr %22, align 4, !tbaa !96
  %.sroa.gep21 = getelementptr inbounds nuw i8, ptr %2, i64 8
  %.sroa.gep22 = getelementptr inbounds nuw i8, ptr %0, i64 8
  %spec.store.select.sroa.sel23 = select i1 %.not, ptr %.sroa.gep21, ptr %.sroa.gep22
  %23 = load ptr, ptr %spec.store.select.sroa.sel23, align 8, !tbaa !37
  %.not.i = icmp eq ptr %23, null
  br i1 %.not.i, label %xstrdup_or_null.exit, label %24

24:                                               ; preds = %1
  %25 = call ptr @xstrdup(ptr noundef nonnull %23) #25
  %.pre = load ptr, ptr @the_repository, align 8, !tbaa !9
  br label %xstrdup_or_null.exit

xstrdup_or_null.exit:                             ; preds = %1, %24
  %26 = phi ptr [ %.pre, %24 ], [ %19, %1 ]
  %27 = phi ptr [ %25, %24 ], [ null, %1 ]
  %28 = getelementptr inbounds nuw i8, ptr %26, i64 432
  store ptr %27, ptr %28, align 8, !tbaa !97
  %29 = getelementptr inbounds nuw i8, ptr %2, i64 56
  call void @string_list_clear(ptr noundef nonnull %29, i32 noundef 0) #25
  %30 = getelementptr inbounds nuw i8, ptr %2, i64 96
  call void @string_list_clear(ptr noundef nonnull %30, i32 noundef 0) #25
  %31 = getelementptr inbounds nuw i8, ptr %2, i64 48
  %32 = load ptr, ptr %31, align 8, !tbaa !36
  call void @free(ptr noundef %32) #25
  %33 = load ptr, ptr %.sroa.gep21, align 8, !tbaa !37
  call void @free(ptr noundef %33) #25
  call void @llvm.lifetime.end.p0(i64 136, ptr nonnull %2) #25
  ret void
}